; Function Attrs: mustprogress nofree nounwind willreturn memory(read) uwtable
define hidden noundef zeroext i1 @_ZNK6Assimp3FBX5Model6IsNullEv(ptr noundef nonnull readonly align 8 captures(none) dereferenceable(208) %0) local_unnamed_addr #5 align 2 {
  %2 = getelementptr inbounds nuw i8, ptr %0, i64 104
  %3 = load ptr, ptr %2, align 8
  %4 = getelementptr inbounds nuw i8, ptr %0, i64 112
  %5 = load ptr, ptr %4, align 8
  %.not = icmp eq ptr %3, %5
  br i1 %.not, label %.critedge, label %.lr.ph

.lr.ph:                                           ; preds = %1, %.critedge15
  %.sroa.016.019 = phi ptr [ %11, %.critedge15 ], [ %3, %1 ]
  %6 = load ptr, ptr %.sroa.016.019, align 8
  %7 = icmp eq ptr %6, null
  br i1 %7, label %.critedge15, label %8

8:                                                ; preds = %.lr.ph
  %9 = tail call ptr @__dynamic_cast(ptr nonnull %6, ptr nonnull @_ZTIN6Assimp3FBX13NodeAttributeE, ptr nonnull @_ZTIN6Assimp3FBX4NullE, i64 0) #16
  %10 = icmp eq ptr %9, null
  br i1 %10, label %.critedge15, label %.critedge

.critedge15:                                      ; preds = %.lr.ph, %8
  %11 = getelementptr inbounds nuw i8, ptr %.sroa.016.019, i64 8
  %.not22 = icmp eq ptr %11, %5
  br i1 %.not22, label %.critedge, label %.lr.ph

.critedge:                                        ; preds = %8, %.critedge15, %1
  %.lcssa = phi i1 [ false, %1 ], [ false, %.critedge15 ], [ true, %8 ]
  ret i1 %.lcssa
}